target datalayout = "e-m:e-p270:32:32-p271:32:32-p272:64:64-i64:64-i128:128-f80:128-n8:16:32:64-S128"
target triple = "x86_64-pc-linux-gnu"

%struct._generic_N_Vector = type { ptr, ptr, ptr }
%struct._N_VectorContent_SensWrapper = type { ptr, i32, i32 }

; Function Attrs: nounwind uwtable
define void @N_VConst_SensWrapper(double noundef %0, ptr noundef %1) #0 {
  %3 = alloca double, align 8
  %4 = alloca ptr, align 8
  %5 = alloca i32, align 4
  store double %0, ptr %3, align 8, !tbaa !61
  store ptr %1, ptr %4, align 8, !tbaa !10
  call void @llvm.lifetime.start.p0(i64 4, ptr %5) #5
  store i32 0, ptr %5, align 4, !tbaa !3
  br label %6

6:                                                ; preds = %25, %2
  %7 = load i32, ptr %5, align 4, !tbaa !3
  %8 = load ptr, ptr %4, align 8, !tbaa !10
  %9 = getelementptr inbounds nuw %struct._generic_N_Vector, ptr %8, i32 0, i32 0
  %10 = load ptr, ptr %9, align 8, !tbaa !45
  %11 = getelementptr inbounds nuw %struct._N_VectorContent_SensWrapper, ptr %10, i32 0, i32 1
  %12 = load i32, ptr %11, align 8, !tbaa !40
  %13 = icmp slt i32 %7, %12
  br i1 %13, label %14, label %28

14:                                               ; preds = %6
  %15 = load double, ptr %3, align 8, !tbaa !61
  %16 = load ptr, ptr %4, align 8, !tbaa !10
  %17 = getelementptr inbounds nuw %struct._generic_N_Vector, ptr %16, i32 0, i32 0
  %18 = load ptr, ptr %17, align 8, !tbaa !45
  %19 = getelementptr inbounds nuw %struct._N_VectorContent_SensWrapper, ptr %18, i32 0, i32 0
  %20 = load ptr, ptr %19, align 8, !tbaa !44
  %21 = load i32, ptr %5, align 4, !tbaa !3
  %22 = sext i32 %21 to i64
  %23 = getelementptr inbounds ptr, ptr %20, i64 %22
  %24 = load ptr, ptr %23, align 8, !tbaa !10
  call void @N_VConst(double noundef %15, ptr noundef %24)
  br label %25

25:                                               ; preds = %14
  %26 = load i32, ptr %5, align 4, !tbaa !3
  %27 = add nsw i32 %26, 1
  store i32 %27, ptr %5, align 4, !tbaa !3
  br label %6

28:                                               ; preds = %6
  call void @llvm.lifetime.end.p0(i64 4, ptr %5) #5
  ret void
}